; Function Attrs: mustprogress uwtable
define noundef ptr @_ZNK6icu_7517TimeZoneNamesImpl5cloneEv(ptr noundef nonnull align 8 dereferenceable(320) %this) unnamed_addr #1 align 2 personality ptr @__gxx_personality_v0 {
entry:
  %status = alloca i32, align 4
  store i32 0, ptr %status, align 4
  %call = tail call noundef ptr @_ZN6icu_757UMemorynwEm(i64 noundef 320) #20
  %new.isnull = icmp eq ptr %call, null
  br i1 %new.isnull, label %new.cont, label %new.notnull

new.notnull:                                      ; preds = %entry
  %fLocale = getelementptr inbounds i8, ptr %this, i64 8
  invoke void @_ZN6icu_7517TimeZoneNamesImplC1ERKNS_6LocaleER10UErrorCode(ptr noundef nonnull align 8 dereferenceable(320) %call, ptr noundef nonnull align 8 dereferenceable(217) %fLocale, ptr noundef nonnull align 4 dereferenceable(4) %status)
          to label %new.cont unwind label %lpad

new.cont:                                         ; preds = %new.notnull, %entry
  ret ptr %call

lpad:                                             ; preds = %new.notnull
  %0 = landingpad { ptr, i32 }
          cleanup
  call void @_ZN6icu_757UMemorydlEPv(ptr noundef nonnull %call) #20
  resume { ptr, i32 } %0
}